target datalayout = "e-m:e-p270:32:32-p271:32:32-p272:64:64-i64:64-i128:128-f80:128-n8:16:32:64-S128"
target triple = "x86_64-pc-linux-gnu"

@hf_opcua_datavalue_mask = internal global i32 0, align 4
@hf_opcua_SourceTimestamp = internal global i32 0, align 4
@hf_opcua_SourcePicoseconds = internal global i32 0, align 4
@hf_opcua_ServerTimestamp = internal global i32 0, align 4
@hf_opcua_ServerPicoseconds = internal global i32 0, align 4
@ett_opcua_datavalue = internal global i32 0, align 4
@.str.180 = private unnamed_addr constant [14 x i8] c"%s: DataValue\00", align 1
@ett_opcua_datavalue_encodingmask = internal global i32 0, align 4
@.str.181 = private unnamed_addr constant [6 x i8] c"Value\00", align 1
@hf_opcua_StatusCode = external global i32, align 4

; Function Attrs: null_pointer_is_valid sspstrong uwtable
define hidden ptr @parseUInt16(ptr noundef %0, ptr noundef %1, ptr noundef %2, ptr noundef %3, i32 noundef %4) #0 {
  %6 = alloca ptr, align 8
  %7 = alloca ptr, align 8
  %8 = alloca ptr, align 8
  %9 = alloca ptr, align 8
  %10 = alloca i32, align 4
  %11 = alloca ptr, align 8
  store ptr %0, ptr %6, align 8
  store ptr %1, ptr %7, align 8
  store ptr %2, ptr %8, align 8
  store ptr %3, ptr %9, align 8
  store i32 %4, ptr %10, align 4
  call void @llvm.lifetime.start.p0(i64 8, ptr %11) #3
  %12 = load ptr, ptr %6, align 8
  %13 = load i32, ptr %10, align 4
  %14 = load ptr, ptr %7, align 8
  %15 = load ptr, ptr %9, align 8
  %16 = load i32, ptr %15, align 4
  %17 = call ptr @proto_tree_add_item(ptr noundef %12, i32 noundef %13, ptr noundef %14, i32 noundef %16, i32 noundef 2, i32 noundef -2147483648)
  store ptr %17, ptr %11, align 8
  %18 = load ptr, ptr %9, align 8
  %19 = load i32, ptr %18, align 4
  %20 = add i32 %19, 2
  store i32 %20, ptr %18, align 4
  %21 = load ptr, ptr %11, align 8
  call void @llvm.lifetime.end.p0(i64 8, ptr %11) #3
  ret ptr %21
}

; Function Attrs: null_pointer_is_valid sspstrong uwtable
define hidden ptr @parseDateTime(ptr noundef %0, ptr noundef %1, ptr noundef %2, ptr noundef %3, i32 noundef %4) #0 {
  %6 = alloca ptr, align 8
  %7 = alloca ptr, align 8
  %8 = alloca ptr, align 8
  %9 = alloca ptr, align 8
  %10 = alloca i32, align 4
  %11 = alloca ptr, align 8
  store ptr %0, ptr %6, align 8
  store ptr %1, ptr %7, align 8
  store ptr %2, ptr %8, align 8
  store ptr %3, ptr %9, align 8
  store i32 %4, ptr %10, align 4
  call void @llvm.lifetime.start.p0(i64 8, ptr %11) #3
  %12 = load ptr, ptr %7, align 8
  %13 = load ptr, ptr %6, align 8
  %14 = load ptr, ptr %9, align 8
  %15 = load i32, ptr %14, align 4
  %16 = load i32, ptr %10, align 4
  %17 = call ptr @dissect_nttime(ptr noundef %12, ptr noundef %13, i32 noundef %15, i32 noundef %16, i32 noundef -2147483648)
  store ptr %17, ptr %11, align 8
  %18 = load ptr, ptr %9, align 8
  %19 = load i32, ptr %18, align 4
  %20 = add i32 %19, 8
  store i32 %20, ptr %18, align 4
  %21 = load ptr, ptr %11, align 8
  call void @llvm.lifetime.end.p0(i64 8, ptr %11) #3
  ret ptr %21
}

; Function Attrs: null_pointer_is_valid sspstrong uwtable
define hidden void @parseDataValue(ptr noundef %0, ptr noundef %1, ptr noundef %2, ptr noundef %3, ptr noundef %4) #0 {
  %6 = alloca ptr, align 8
  %7 = alloca ptr, align 8
  %8 = alloca ptr, align 8
  %9 = alloca ptr, align 8
  %10 = alloca ptr, align 8
  %11 = alloca ptr, align 8
  %12 = alloca ptr, align 8
  %13 = alloca i32, align 4
  %14 = alloca i8, align 1
  store ptr %0, ptr %6, align 8
  store ptr %1, ptr %7, align 8
  store ptr %2, ptr %8, align 8
  store ptr %3, ptr %9, align 8
  store ptr %4, ptr %10, align 8
  call void @llvm.lifetime.start.p0(i64 8, ptr %11) #3
  call void @llvm.lifetime.start.p0(i64 8, ptr %12) #3
  %15 = load ptr, ptr %6, align 8
  %16 = load ptr, ptr %7, align 8
  %17 = load ptr, ptr %9, align 8
  %18 = load i32, ptr %17, align 4
  %19 = load i32, ptr @ett_opcua_datavalue, align 4
  %20 = load ptr, ptr %10, align 8
  %21 = call ptr (ptr, ptr, i32, i32, i32, ptr, ptr, ...) @proto_tree_add_subtree_format(ptr noundef %15, ptr noundef %16, i32 noundef %18, i32 noundef -1, i32 noundef %19, ptr noundef %11, ptr noundef @.str.180, ptr noundef %20)
  store ptr %21, ptr %12, align 8
  call void @llvm.lifetime.start.p0(i64 4, ptr %13) #3
  %22 = load ptr, ptr %9, align 8
  %23 = load i32, ptr %22, align 4
  store i32 %23, ptr %13, align 4
  call void @llvm.lifetime.start.p0(i64 1, ptr %14) #3
  %24 = load ptr, ptr %7, align 8
  %25 = load i32, ptr %13, align 4
  %26 = call zeroext i8 @tvb_get_uint8(ptr noundef %24, i32 noundef %25)
  store i8 %26, ptr %14, align 1
  %27 = load ptr, ptr %12, align 8
  %28 = load ptr, ptr %7, align 8
  %29 = load i32, ptr %13, align 4
  %30 = load i32, ptr @hf_opcua_datavalue_mask, align 4
  %31 = load i32, ptr @ett_opcua_datavalue_encodingmask, align 4
  %32 = call ptr @proto_tree_add_bitmask(ptr noundef %27, ptr noundef %28, i32 noundef %29, i32 noundef %30, i32 noundef %31, ptr noundef @parseDataValue.datavalue_mask, i32 noundef -2147483648)
  %33 = load i32, ptr %13, align 4
  %34 = add i32 %33, 1
  store i32 %34, ptr %13, align 4
  %35 = load ptr, ptr %8, align 8
  call void @increment_dissection_depth(ptr noundef %35)
  %36 = load i8, ptr %14, align 1
  %37 = zext i8 %36 to i32
  %38 = and i32 %37, 1
  %39 = icmp ne i32 %38, 0
  br i1 %39, label %40, label %44

40:                                               ; preds = %5
  %41 = load ptr, ptr %12, align 8
  %42 = load ptr, ptr %7, align 8
  %43 = load ptr, ptr %8, align 8
  call void @parseVariant(ptr noundef %41, ptr noundef %42, ptr noundef %43, ptr noundef %13, ptr noundef @.str.181)
  br label %44

44:                                               ; preds = %40, %5
  %45 = load i8, ptr %14, align 1
  %46 = zext i8 %45 to i32
  %47 = and i32 %46, 2
  %48 = icmp ne i32 %47, 0
  br i1 %48, label %49, label %55

49:                                               ; preds = %44
  %50 = load ptr, ptr %12, align 8
  %51 = load ptr, ptr %7, align 8
  %52 = load ptr, ptr %8, align 8
  %53 = load i32, ptr @hf_opcua_StatusCode, align 4
  %54 = call ptr @parseStatusCode(ptr noundef %50, ptr noundef %51, ptr noundef %52, ptr noundef %13, i32 noundef %53)
  br label %55

55:                                               ; preds = %49, %44
  %56 = load i8, ptr %14, align 1
  %57 = zext i8 %56 to i32
  %58 = and i32 %57, 4
  %59 = icmp ne i32 %58, 0
  br i1 %59, label %60, label %66

60:                                               ; preds = %55
  %61 = load ptr, ptr %12, align 8
  %62 = load ptr, ptr %7, align 8
  %63 = load ptr, ptr %8, align 8
  %64 = load i32, ptr @hf_opcua_SourceTimestamp, align 4
  %65 = call ptr @parseDateTime(ptr noundef %61, ptr noundef %62, ptr noundef %63, ptr noundef %13, i32 noundef %64)
  br label %66

66:                                               ; preds = %60, %55
  %67 = load i8, ptr %14, align 1
  %68 = zext i8 %67 to i32
  %69 = and i32 %68, 16
  %70 = icmp ne i32 %69, 0
  br i1 %70, label %71, label %77

71:                                               ; preds = %66
  %72 = load ptr, ptr %12, align 8
  %73 = load ptr, ptr %7, align 8
  %74 = load ptr, ptr %8, align 8
  %75 = load i32, ptr @hf_opcua_SourcePicoseconds, align 4
  %76 = call ptr @parseUInt16(ptr noundef %72, ptr noundef %73, ptr noundef %74, ptr noundef %13, i32 noundef %75)
  br label %77

77:                                               ; preds = %71, %66
  %78 = load i8, ptr %14, align 1
  %79 = zext i8 %78 to i32
  %80 = and i32 %79, 8
  %81 = icmp ne i32 %80, 0
  br i1 %81, label %82, label %88

82:                                               ; preds = %77
  %83 = load ptr, ptr %12, align 8
  %84 = load ptr, ptr %7, align 8
  %85 = load ptr, ptr %8, align 8
  %86 = load i32, ptr @hf_opcua_ServerTimestamp, align 4
  %87 = call ptr @parseDateTime(ptr noundef %83, ptr noundef %84, ptr noundef %85, ptr noundef %13, i32 noundef %86)
  br label %88

88:                                               ; preds = %82, %77
  %89 = load i8, ptr %14, align 1
  %90 = zext i8 %89 to i32
  %91 = and i32 %90, 32
  %92 = icmp ne i32 %91, 0
  br i1 %92, label %93, label %99

93:                                               ; preds = %88
  %94 = load ptr, ptr %12, align 8
  %95 = load ptr, ptr %7, align 8
  %96 = load ptr, ptr %8, align 8
  %97 = load i32, ptr @hf_opcua_ServerPicoseconds, align 4
  %98 = call ptr @parseUInt16(ptr noundef %94, ptr noundef %95, ptr noundef %96, ptr noundef %13, i32 noundef %97)
  br label %99

99:                                               ; preds = %93, %88
  %100 = load ptr, ptr %8, align 8
  call void @decrement_dissection_depth(ptr noundef %100)
  %101 = load ptr, ptr %11, align 8
  %102 = load ptr, ptr %7, align 8
  %103 = load i32, ptr %13, align 4
  call void @proto_item_set_end(ptr noundef %101, ptr noundef %102, i32 noundef %103)
  %104 = load i32, ptr %13, align 4
  %105 = load ptr, ptr %9, align 8
  store i32 %104, ptr %105, align 4
  call void @llvm.lifetime.end.p0(i64 1, ptr %14) #3
  call void @llvm.lifetime.end.p0(i64 4, ptr %13) #3
  call void @llvm.lifetime.end.p0(i64 8, ptr %12) #3
  call void @llvm.lifetime.end.p0(i64 8, ptr %11) #3
  ret void
}