; Function Attrs: null_pointer_is_valid sspstrong uwtable
define hidden void @parseDataValue(ptr noundef %0, ptr noundef %1, ptr noundef %2, ptr noundef captures(none) %3, ptr noundef %4) #0 {
  %6 = alloca ptr, align 8
  %7 = alloca i32, align 4
  call void @llvm.lifetime.start.p0(i64 8, ptr nonnull %6) #4
  %8 = load i32, ptr %3, align 4
  %9 = load i32, ptr @ett_opcua_datavalue, align 4
  %10 = call ptr (ptr, ptr, i32, i32, i32, ptr, ptr, ...) @proto_tree_add_subtree_format(ptr noundef %0, ptr noundef %1, i32 noundef %8, i32 noundef -1, i32 noundef %9, ptr noundef nonnull %6, ptr noundef nonnull @.str.180, ptr noundef %4)
  call void @llvm.lifetime.start.p0(i64 4, ptr nonnull %7) #4
  %11 = load i32, ptr %3, align 4
  %12 = call zeroext i8 @tvb_get_uint8(ptr noundef %1, i32 noundef %11)
  %13 = load i32, ptr @hf_opcua_datavalue_mask, align 4
  %14 = load i32, ptr @ett_opcua_datavalue_encodingmask, align 4
  %15 = call ptr @proto_tree_add_bitmask(ptr noundef %10, ptr noundef %1, i32 noundef %11, i32 noundef %13, i32 noundef %14, ptr noundef nonnull @parseDataValue.datavalue_mask, i32 noundef -2147483648)
  %16 = add i32 %11, 1
  store i32 %16, ptr %7, align 4
  call void @increment_dissection_depth(ptr noundef %2)
  %17 = zext i8 %12 to i32
  %18 = and i32 %17, 1
  %.not = icmp eq i32 %18, 0
  br i1 %.not, label %20, label %19

19:                                               ; preds = %5
  call void @parseVariant(ptr noundef %10, ptr noundef %1, ptr noundef %2, ptr noundef nonnull %7, ptr noundef nonnull @.str.181)
  br label %20

20:                                               ; preds = %19, %5
  %21 = and i32 %17, 2
  %.not35 = icmp eq i32 %21, 0
  br i1 %.not35, label %25, label %22

22:                                               ; preds = %20
  %23 = load i32, ptr @hf_opcua_StatusCode, align 4
  %24 = call ptr @parseStatusCode(ptr noundef %10, ptr noundef %1, ptr poison, ptr noundef nonnull %7, i32 noundef %23)
  br label %25

25:                                               ; preds = %22, %20
  %26 = and i32 %17, 4
  %.not36 = icmp eq i32 %26, 0
  %.pre.pre.pre.pre = load i32, ptr %7, align 4
  br i1 %.not36, label %31, label %27

27:                                               ; preds = %25
  %28 = load i32, ptr @hf_opcua_SourceTimestamp, align 4
  %29 = call ptr @dissect_nttime(ptr noundef %1, ptr noundef %10, i32 noundef %.pre.pre.pre.pre, i32 noundef %28, i32 noundef -2147483648)
  %30 = add i32 %.pre.pre.pre.pre, 8
  br label %31

31:                                               ; preds = %27, %25
  %.pre.pre.pre = phi i32 [ %30, %27 ], [ %.pre.pre.pre.pre, %25 ]
  %32 = and i32 %17, 16
  %.not37 = icmp eq i32 %32, 0
  br i1 %.not37, label %37, label %33

33:                                               ; preds = %31
  %34 = load i32, ptr @hf_opcua_SourcePicoseconds, align 4
  %35 = call ptr @proto_tree_add_item(ptr noundef %10, i32 noundef %34, ptr noundef %1, i32 noundef %.pre.pre.pre, i32 noundef 2, i32 noundef -2147483648)
  %36 = add i32 %.pre.pre.pre, 2
  br label %37

37:                                               ; preds = %33, %31
  %.pre.pre = phi i32 [ %36, %33 ], [ %.pre.pre.pre, %31 ]
  %38 = and i32 %17, 8
  %.not38 = icmp eq i32 %38, 0
  br i1 %.not38, label %43, label %39

39:                                               ; preds = %37
  %40 = load i32, ptr @hf_opcua_ServerTimestamp, align 4
  %41 = call ptr @dissect_nttime(ptr noundef %1, ptr noundef %10, i32 noundef %.pre.pre, i32 noundef %40, i32 noundef -2147483648)
  %42 = add i32 %.pre.pre, 8
  br label %43

43:                                               ; preds = %39, %37
  %.pre = phi i32 [ %42, %39 ], [ %.pre.pre, %37 ]
  %44 = and i32 %17, 32
  %.not39 = icmp eq i32 %44, 0
  br i1 %.not39, label %49, label %45

45:                                               ; preds = %43
  %46 = load i32, ptr @hf_opcua_ServerPicoseconds, align 4
  %47 = call ptr @proto_tree_add_item(ptr noundef %10, i32 noundef %46, ptr noundef %1, i32 noundef %.pre, i32 noundef 2, i32 noundef -2147483648)
  %48 = add i32 %.pre, 2
  br label %49

49:                                               ; preds = %45, %43
  %50 = phi i32 [ %48, %45 ], [ %.pre, %43 ]
  call void @decrement_dissection_depth(ptr noundef %2)
  %51 = load ptr, ptr %6, align 8
  call void @proto_item_set_end(ptr noundef %51, ptr noundef %1, i32 noundef %50)
  store i32 %50, ptr %3, align 4
  call void @llvm.lifetime.end.p0(i64 4, ptr nonnull %7) #4
  call void @llvm.lifetime.end.p0(i64 8, ptr nonnull %6) #4
  ret void
}